target datalayout = "e-m:e-p270:32:32-p271:32:32-p272:64:64-i64:64-i128:128-f80:128-n8:16:32:64-S128"
target triple = "x86_64-unknown-linux-gnu"

%"struct.msdfgen::Vector2" = type { double, double }
%"class.msdfgen::LinearSegment" = type { %"class.msdfgen::EdgeSegment.base", [2 x %"struct.msdfgen::Vector2"] }
%"class.msdfgen::EdgeSegment.base" = type <{ ptr, i32 }>
%"class.msdfgen::EdgeSegment" = type <{ ptr, i32, [4 x i8] }>

@_ZN7msdfgen13LinearSegmentC1ENS_7Vector2ES1_NS_9EdgeColorE = dso_local unnamed_addr alias void (ptr, double, double, double, double, i32), ptr @_ZN7msdfgen13LinearSegmentC2ENS_7Vector2ES1_NS_9EdgeColorE

; Function Attrs: mustprogress uwtable
define dso_local void @_ZNK7msdfgen13LinearSegment13splitInThirdsERPNS_11EdgeSegmentES3_S3_(ptr noundef nonnull align 8 dereferenceable(48) %this, ptr noundef nonnull align 8 dereferenceable(8) %part0, ptr noundef nonnull align 8 dereferenceable(8) %part1, ptr noundef nonnull align 8 dereferenceable(8) %part2) unnamed_addr #0 align 2 personality ptr @__gxx_personality_v0 {
entry:
  %this.addr = alloca ptr, align 8
  %part0.addr = alloca ptr, align 8
  %part1.addr = alloca ptr, align 8
  %part2.addr = alloca ptr, align 8
  %agg.tmp = alloca %"struct.msdfgen::Vector2", align 8
  %agg.tmp2 = alloca %"struct.msdfgen::Vector2", align 8
  %exn.slot = alloca ptr, align 8
  %ehselector.slot = alloca i32, align 4
  %agg.tmp6 = alloca %"struct.msdfgen::Vector2", align 8
  %agg.tmp12 = alloca %"struct.msdfgen::Vector2", align 8
  %agg.tmp20 = alloca %"struct.msdfgen::Vector2", align 8
  %agg.tmp26 = alloca %"struct.msdfgen::Vector2", align 8
  store ptr %this, ptr %this.addr, align 8
  store ptr %part0, ptr %part0.addr, align 8
  store ptr %part1, ptr %part1.addr, align 8
  store ptr %part2, ptr %part2.addr, align 8
  %this1 = load ptr, ptr %this.addr, align 8
  %call = call noalias noundef nonnull ptr @_Znwm(i64 noundef 48) #9
  %p = getelementptr inbounds %"class.msdfgen::LinearSegment", ptr %this1, i32 0, i32 1
  %arrayidx = getelementptr inbounds [2 x %"struct.msdfgen::Vector2"], ptr %p, i64 0, i64 0
  call void @llvm.memcpy.p0.p0.i64(ptr align 8 %agg.tmp, ptr align 8 %arrayidx, i64 16, i1 false)
  %vtable = load ptr, ptr %this1, align 8
  %vfn = getelementptr inbounds ptr, ptr %vtable, i64 5
  %0 = load ptr, ptr %vfn, align 8
  %call3 = invoke { double, double } %0(ptr noundef nonnull align 8 dereferenceable(48) %this1, double noundef 0x3FD5555555555555)
          to label %invoke.cont unwind label %lpad

invoke.cont:                                      ; preds = %entry
  %1 = getelementptr inbounds { double, double }, ptr %agg.tmp2, i32 0, i32 0
  %2 = extractvalue { double, double } %call3, 0
  store double %2, ptr %1, align 8
  %3 = getelementptr inbounds { double, double }, ptr %agg.tmp2, i32 0, i32 1
  %4 = extractvalue { double, double } %call3, 1
  store double %4, ptr %3, align 8
  %color = getelementptr inbounds %"class.msdfgen::EdgeSegment", ptr %this1, i32 0, i32 1
  %5 = load i32, ptr %color, align 8
  %6 = getelementptr inbounds { double, double }, ptr %agg.tmp, i32 0, i32 0
  %7 = load double, ptr %6, align 8
  %8 = getelementptr inbounds { double, double }, ptr %agg.tmp, i32 0, i32 1
  %9 = load double, ptr %8, align 8
  %10 = getelementptr inbounds { double, double }, ptr %agg.tmp2, i32 0, i32 0
  %11 = load double, ptr %10, align 8
  %12 = getelementptr inbounds { double, double }, ptr %agg.tmp2, i32 0, i32 1
  %13 = load double, ptr %12, align 8
  invoke void @_ZN7msdfgen13LinearSegmentC1ENS_7Vector2ES1_NS_9EdgeColorE(ptr noundef nonnull align 8 dereferenceable(48) %call, double %7, double %9, double %11, double %13, i32 noundef %5)
          to label %invoke.cont4 unwind label %lpad

invoke.cont4:                                     ; preds = %invoke.cont
  %14 = load ptr, ptr %part0.addr, align 8
  store ptr %call, ptr %14, align 8
  %call5 = call noalias noundef nonnull ptr @_Znwm(i64 noundef 48) #9
  %vtable7 = load ptr, ptr %this1, align 8
  %vfn8 = getelementptr inbounds ptr, ptr %vtable7, i64 5
  %15 = load ptr, ptr %vfn8, align 8
  %call11 = invoke { double, double } %15(ptr noundef nonnull align 8 dereferenceable(48) %this1, double noundef 0x3FD5555555555555)
          to label %invoke.cont10 unwind label %lpad9

invoke.cont10:                                    ; preds = %invoke.cont4
  %16 = getelementptr inbounds { double, double }, ptr %agg.tmp6, i32 0, i32 0
  %17 = extractvalue { double, double } %call11, 0
  store double %17, ptr %16, align 8
  %18 = getelementptr inbounds { double, double }, ptr %agg.tmp6, i32 0, i32 1
  %19 = extractvalue { double, double } %call11, 1
  store double %19, ptr %18, align 8
  %vtable13 = load ptr, ptr %this1, align 8
  %vfn14 = getelementptr inbounds ptr, ptr %vtable13, i64 5
  %20 = load ptr, ptr %vfn14, align 8
  %call16 = invoke { double, double } %20(ptr noundef nonnull align 8 dereferenceable(48) %this1, double noundef 0x3FE5555555555555)
          to label %invoke.cont15 unwind label %lpad9

invoke.cont15:                                    ; preds = %invoke.cont10
  %21 = getelementptr inbounds { double, double }, ptr %agg.tmp12, i32 0, i32 0
  %22 = extractvalue { double, double } %call16, 0
  store double %22, ptr %21, align 8
  %23 = getelementptr inbounds { double, double }, ptr %agg.tmp12, i32 0, i32 1
  %24 = extractvalue { double, double } %call16, 1
  store double %24, ptr %23, align 8
  %color17 = getelementptr inbounds %"class.msdfgen::EdgeSegment", ptr %this1, i32 0, i32 1
  %25 = load i32, ptr %color17, align 8
  %26 = getelementptr inbounds { double, double }, ptr %agg.tmp6, i32 0, i32 0
  %27 = load double, ptr %26, align 8
  %28 = getelementptr inbounds { double, double }, ptr %agg.tmp6, i32 0, i32 1
  %29 = load double, ptr %28, align 8
  %30 = getelementptr inbounds { double, double }, ptr %agg.tmp12, i32 0, i32 0
  %31 = load double, ptr %30, align 8
  %32 = getelementptr inbounds { double, double }, ptr %agg.tmp12, i32 0, i32 1
  %33 = load double, ptr %32, align 8
  invoke void @_ZN7msdfgen13LinearSegmentC1ENS_7Vector2ES1_NS_9EdgeColorE(ptr noundef nonnull align 8 dereferenceable(48) %call5, double %27, double %29, double %31, double %33, i32 noundef %25)
          to label %invoke.cont18 unwind label %lpad9

invoke.cont18:                                    ; preds = %invoke.cont15
  %34 = load ptr, ptr %part1.addr, align 8
  store ptr %call5, ptr %34, align 8
  %call19 = call noalias noundef nonnull ptr @_Znwm(i64 noundef 48) #9
  %vtable21 = load ptr, ptr %this1, align 8
  %vfn22 = getelementptr inbounds ptr, ptr %vtable21, i64 5
  %35 = load ptr, ptr %vfn22, align 8
  %call25 = invoke { double, double } %35(ptr noundef nonnull align 8 dereferenceable(48) %this1, double noundef 0x3FE5555555555555)
          to label %invoke.cont24 unwind label %lpad23

invoke.cont24:                                    ; preds = %invoke.cont18
  %36 = getelementptr inbounds { double, double }, ptr %agg.tmp20, i32 0, i32 0
  %37 = extractvalue { double, double } %call25, 0
  store double %37, ptr %36, align 8
  %38 = getelementptr inbounds { double, double }, ptr %agg.tmp20, i32 0, i32 1
  %39 = extractvalue { double, double } %call25, 1
  store double %39, ptr %38, align 8
  %p27 = getelementptr inbounds %"class.msdfgen::LinearSegment", ptr %this1, i32 0, i32 1
  %arrayidx28 = getelementptr inbounds [2 x %"struct.msdfgen::Vector2"], ptr %p27, i64 0, i64 1
  call void @llvm.memcpy.p0.p0.i64(ptr align 8 %agg.tmp26, ptr align 8 %arrayidx28, i64 16, i1 false)
  %color29 = getelementptr inbounds %"class.msdfgen::EdgeSegment", ptr %this1, i32 0, i32 1
  %40 = load i32, ptr %color29, align 8
  %41 = getelementptr inbounds { double, double }, ptr %agg.tmp20, i32 0, i32 0
  %42 = load double, ptr %41, align 8
  %43 = getelementptr inbounds { double, double }, ptr %agg.tmp20, i32 0, i32 1
  %44 = load double, ptr %43, align 8
  %45 = getelementptr inbounds { double, double }, ptr %agg.tmp26, i32 0, i32 0
  %46 = load double, ptr %45, align 8
  %47 = getelementptr inbounds { double, double }, ptr %agg.tmp26, i32 0, i32 1
  %48 = load double, ptr %47, align 8
  invoke void @_ZN7msdfgen13LinearSegmentC1ENS_7Vector2ES1_NS_9EdgeColorE(ptr noundef nonnull align 8 dereferenceable(48) %call19, double %42, double %44, double %46, double %48, i32 noundef %40)
          to label %invoke.cont30 unwind label %lpad23

invoke.cont30:                                    ; preds = %invoke.cont24
  %49 = load ptr, ptr %part2.addr, align 8
  store ptr %call19, ptr %49, align 8
  ret void

lpad:                                             ; preds = %invoke.cont, %entry
  %50 = landingpad { ptr, i32 }
          cleanup
  %51 = extractvalue { ptr, i32 } %50, 0
  store ptr %51, ptr %exn.slot, align 8
  %52 = extractvalue { ptr, i32 } %50, 1
  store i32 %52, ptr %ehselector.slot, align 4
  call void @_ZdlPv(ptr noundef %call) #10
  br label %eh.resume

lpad9:                                            ; preds = %invoke.cont15, %invoke.cont10, %invoke.cont4
  %53 = landingpad { ptr, i32 }
          cleanup
  %54 = extractvalue { ptr, i32 } %53, 0
  store ptr %54, ptr %exn.slot, align 8
  %55 = extractvalue { ptr, i32 } %53, 1
  store i32 %55, ptr %ehselector.slot, align 4
  call void @_ZdlPv(ptr noundef %call5) #10
  br label %eh.resume

lpad23:                                           ; preds = %invoke.cont24, %invoke.cont18
  %56 = landingpad { ptr, i32 }
          cleanup
  %57 = extractvalue { ptr, i32 } %56, 0
  store ptr %57, ptr %exn.slot, align 8
  %58 = extractvalue { ptr, i32 } %56, 1
  store i32 %58, ptr %ehselector.slot, align 4
  call void @_ZdlPv(ptr noundef %call19) #10
  br label %eh.resume

eh.resume:                                        ; preds = %lpad23, %lpad9, %lpad
  %exn = load ptr, ptr %exn.slot, align 8
  %sel = load i32, ptr %ehselector.slot, align 4
  %lpad.val = insertvalue { ptr, i32 } poison, ptr %exn, 0
  %lpad.val31 = insertvalue { ptr, i32 } %lpad.val, i32 %sel, 1
  resume { ptr, i32 } %lpad.val31
}