; Function Attrs: mustprogress uwtable
define dso_local void @_ZNK7msdfgen13LinearSegment13splitInThirdsERPNS_11EdgeSegmentES3_S3_(ptr noundef nonnull align 8 dereferenceable(48) %this, ptr nocapture noundef nonnull writeonly align 8 dereferenceable(8) %part0, ptr nocapture noundef nonnull writeonly align 8 dereferenceable(8) %part1, ptr nocapture noundef nonnull writeonly align 8 dereferenceable(8) %part2) unnamed_addr #0 align 2 personality ptr @__gxx_personality_v0 {
entry:
  %call = tail call noalias noundef nonnull dereferenceable(48) ptr @_Znwm(i64 noundef 48) #15
  %p = getelementptr inbounds i8, ptr %this, i64 16
  %0 = load <2 x double>, ptr %p, align 8
  %vtable = load ptr, ptr %this, align 8
  %vfn = getelementptr inbounds i8, ptr %vtable, i64 40
  %1 = load ptr, ptr %vfn, align 8
  %call3 = invoke { double, double } %1(ptr noundef nonnull align 8 dereferenceable(48) %this, double noundef 0x3FD5555555555555)
          to label %invoke.cont4 unwind label %lpad

invoke.cont4:                                     ; preds = %entry
  %2 = extractvalue { double, double } %call3, 0
  %3 = extractvalue { double, double } %call3, 1
  %color = getelementptr inbounds i8, ptr %this, i64 8
  %4 = load i32, ptr %color, align 8
  %color.i.i = getelementptr inbounds i8, ptr %call, i64 8
  store i32 %4, ptr %color.i.i, align 8
  store ptr getelementptr inbounds ({ [18 x ptr] }, ptr @_ZTVN7msdfgen13LinearSegmentE, i64 0, i32 0, i64 2), ptr %call, align 8
  %scevgep.i = getelementptr inbounds i8, ptr %call, i64 16
  store <2 x double> %0, ptr %scevgep.i, align 8
  %arrayidx4.i = getelementptr inbounds i8, ptr %call, i64 32
  store double %2, ptr %arrayidx4.i, align 8
  %p1.sroa.2.0.arrayidx4.sroa_idx.i = getelementptr inbounds i8, ptr %call, i64 40
  store double %3, ptr %p1.sroa.2.0.arrayidx4.sroa_idx.i, align 8
  store ptr %call, ptr %part0, align 8
  %call5 = tail call noalias noundef nonnull dereferenceable(48) ptr @_Znwm(i64 noundef 48) #15
  %vtable7 = load ptr, ptr %this, align 8
  %vfn8 = getelementptr inbounds i8, ptr %vtable7, i64 40
  %5 = load ptr, ptr %vfn8, align 8
  %call11 = invoke { double, double } %5(ptr noundef nonnull align 8 dereferenceable(48) %this, double noundef 0x3FD5555555555555)
          to label %invoke.cont10 unwind label %lpad9

invoke.cont10:                                    ; preds = %invoke.cont4
  %vtable13 = load ptr, ptr %this, align 8
  %vfn14 = getelementptr inbounds i8, ptr %vtable13, i64 40
  %6 = load ptr, ptr %vfn14, align 8
  %call16 = invoke { double, double } %6(ptr noundef nonnull align 8 dereferenceable(48) %this, double noundef 0x3FE5555555555555)
          to label %invoke.cont18 unwind label %lpad9

invoke.cont18:                                    ; preds = %invoke.cont10
  %7 = extractvalue { double, double } %call11, 1
  %8 = extractvalue { double, double } %call11, 0
  %9 = extractvalue { double, double } %call16, 0
  %10 = extractvalue { double, double } %call16, 1
  %11 = load i32, ptr %color, align 8
  %color.i.i2 = getelementptr inbounds i8, ptr %call5, i64 8
  store i32 %11, ptr %color.i.i2, align 8
  store ptr getelementptr inbounds ({ [18 x ptr] }, ptr @_ZTVN7msdfgen13LinearSegmentE, i64 0, i32 0, i64 2), ptr %call5, align 8
  %scevgep.i3 = getelementptr inbounds i8, ptr %call5, i64 16
  store double %8, ptr %scevgep.i3, align 8
  %p0.sroa.2.0.arrayidx.sroa_idx.i4 = getelementptr inbounds i8, ptr %call5, i64 24
  store double %7, ptr %p0.sroa.2.0.arrayidx.sroa_idx.i4, align 8
  %arrayidx4.i5 = getelementptr inbounds i8, ptr %call5, i64 32
  store double %9, ptr %arrayidx4.i5, align 8
  %p1.sroa.2.0.arrayidx4.sroa_idx.i6 = getelementptr inbounds i8, ptr %call5, i64 40
  store double %10, ptr %p1.sroa.2.0.arrayidx4.sroa_idx.i6, align 8
  store ptr %call5, ptr %part1, align 8
  %call19 = tail call noalias noundef nonnull dereferenceable(48) ptr @_Znwm(i64 noundef 48) #15
  %vtable21 = load ptr, ptr %this, align 8
  %vfn22 = getelementptr inbounds i8, ptr %vtable21, i64 40
  %12 = load ptr, ptr %vfn22, align 8
  %call25 = invoke { double, double } %12(ptr noundef nonnull align 8 dereferenceable(48) %this, double noundef 0x3FE5555555555555)
          to label %invoke.cont30 unwind label %lpad23

invoke.cont30:                                    ; preds = %invoke.cont18
  %13 = extractvalue { double, double } %call25, 0
  %14 = extractvalue { double, double } %call25, 1
  %arrayidx28 = getelementptr inbounds i8, ptr %this, i64 32
  %15 = load i32, ptr %color, align 8
  %color.i.i7 = getelementptr inbounds i8, ptr %call19, i64 8
  store i32 %15, ptr %color.i.i7, align 8
  store ptr getelementptr inbounds ({ [18 x ptr] }, ptr @_ZTVN7msdfgen13LinearSegmentE, i64 0, i32 0, i64 2), ptr %call19, align 8
  %scevgep.i8 = getelementptr inbounds i8, ptr %call19, i64 16
  store double %13, ptr %scevgep.i8, align 8
  %p0.sroa.2.0.arrayidx.sroa_idx.i9 = getelementptr inbounds i8, ptr %call19, i64 24
  store double %14, ptr %p0.sroa.2.0.arrayidx.sroa_idx.i9, align 8
  %arrayidx4.i10 = getelementptr inbounds i8, ptr %call19, i64 32
  %16 = load <2 x double>, ptr %arrayidx28, align 8
  store <2 x double> %16, ptr %arrayidx4.i10, align 8
  store ptr %call19, ptr %part2, align 8
  ret void

lpad:                                             ; preds = %entry
  %17 = landingpad { ptr, i32 }
          cleanup
  br label %eh.resume

lpad9:                                            ; preds = %invoke.cont10, %invoke.cont4
  %18 = landingpad { ptr, i32 }
          cleanup
  br label %eh.resume

lpad23:                                           ; preds = %invoke.cont18
  %19 = landingpad { ptr, i32 }
          cleanup
  br label %eh.resume

eh.resume:                                        ; preds = %lpad23, %lpad9, %lpad
  %call19.sink = phi ptr [ %call19, %lpad23 ], [ %call5, %lpad9 ], [ %call, %lpad ]
  %.pn = phi { ptr, i32 } [ %19, %lpad23 ], [ %18, %lpad9 ], [ %17, %lpad ]
  tail call void @_ZdlPv(ptr noundef nonnull %call19.sink) #17
  resume { ptr, i32 } %.pn
}